; Function Attrs: mustprogress uwtable
define hidden noundef i32 @_ZN4cvc58internal5proof13getAletheRuleENS0_12NodeTemplateILb1EEE(ptr noundef readonly captures(none) %0) local_unnamed_addr #4 personality ptr @__gxx_personality_v0 {
  %2 = alloca i32, align 4
  %3 = alloca %"class.cvc5::internal::NodeTemplate.0", align 8
  call void @llvm.lifetime.start.p0(i64 4, ptr nonnull %2) #8
  %4 = load ptr, ptr %0, align 8, !tbaa !3
  store ptr %4, ptr %3, align 8, !tbaa !9
  %5 = call noundef zeroext i1 @_ZN4cvc58internal16ProofRuleChecker9getUInt32ENS0_12NodeTemplateILb0EEERj(ptr noundef nonnull %3, ptr noundef nonnull align 4 dereferenceable(4) %2)
  %6 = load i32, ptr %2, align 4
  %.0 = select i1 %5, i32 %6, i32 117
  call void @llvm.lifetime.end.p0(i64 4, ptr nonnull %2) #8
  ret i32 %.0
}